target datalayout = "e-m:e-p270:32:32-p271:32:32-p272:64:64-i64:64-i128:128-f80:128-n8:16:32:64-S128"
target triple = "x86_64-pc-linux-gnu"

%class.JvmtiAgent = type <{ %class.TimeInstant, %class.TimeInterval, ptr, ptr, ptr, ptr, ptr, ptr, i8, i8, i8, i8, i8, i8, [2 x i8] }>
%class.TimeInstant = type { %class.CompositeCounterRepresentation }
%class.CompositeCounterRepresentation = type { %class.Representation }
%class.Representation = type { %class.PairRep }
%class.PairRep = type { i64, i64 }
%class.TimeInterval = type { %class.CompositeCounterRepresentation }

@.str.10 = private unnamed_addr constant [3 x i8] c"%s\00", align 1

; Function Attrs: mustprogress nounwind uwtable
define internal noundef ptr @_ZL11copy_stringPKc(ptr noundef %0) #1 {
  %2 = alloca ptr, align 8
  store ptr %0, ptr %2, align 8
  %3 = load ptr, ptr %2, align 8
  %4 = icmp ne ptr %3, null
  br i1 %4, label %5, label %8

5:                                                ; preds = %1
  %6 = load ptr, ptr %2, align 8
  %7 = call noundef ptr @_ZN2os6strdupEPKc8MEMFLAGS(ptr noundef %6, i8 noundef zeroext 23)
  br label %9

8:                                                ; preds = %1
  br label %9

9:                                                ; preds = %8, %5
  %10 = phi ptr [ %7, %5 ], [ null, %8 ]
  ret ptr %10
}

; Function Attrs: mustprogress nounwind uwtable
define internal noundef ptr @_ZL31split_options_and_allocate_copyPKcPS0_(ptr noundef %0, ptr noundef %1) #1 {
  %3 = alloca ptr, align 8
  %4 = alloca ptr, align 8
  %5 = alloca ptr, align 8
  %6 = alloca i64, align 8
  %7 = alloca i64, align 8
  %8 = alloca i64, align 8
  %9 = alloca ptr, align 8
  store ptr %0, ptr %3, align 8
  store ptr %1, ptr %4, align 8
  %10 = load ptr, ptr %3, align 8
  %11 = call noundef ptr @strchr(ptr noundef %10, i32 noundef 61) #7
  store ptr %11, ptr %5, align 8
  %12 = load ptr, ptr %3, align 8
  %13 = call i64 @strlen(ptr noundef %12) #7
  store i64 %13, ptr %6, align 8
  %14 = load i64, ptr %6, align 8
  store i64 %14, ptr %7, align 8
  %15 = load ptr, ptr %5, align 8
  %16 = icmp ne ptr %15, null
  br i1 %16, label %17, label %31

17:                                               ; preds = %2
  %18 = load ptr, ptr %5, align 8
  %19 = load ptr, ptr %3, align 8
  %20 = ptrtoint ptr %18 to i64
  %21 = ptrtoint ptr %19 to i64
  %22 = sub i64 %20, %21
  store i64 %22, ptr %7, align 8
  %23 = load i64, ptr %6, align 8
  %24 = load i64, ptr %7, align 8
  %25 = sub i64 %23, %24
  %26 = sub i64 %25, 1
  store i64 %26, ptr %8, align 8
  %27 = load ptr, ptr %5, align 8
  %28 = getelementptr inbounds i8, ptr %27, i64 1
  %29 = call noundef ptr @_ZL11copy_stringPKc(ptr noundef %28)
  %30 = load ptr, ptr %4, align 8
  store ptr %29, ptr %30, align 8
  br label %34

31:                                               ; preds = %2
  %32 = load ptr, ptr %4, align 8
  store ptr null, ptr %32, align 8
  %33 = load i64, ptr %6, align 8
  store i64 %33, ptr %7, align 8
  br label %34

34:                                               ; preds = %31, %17
  %35 = load i64, ptr %7, align 8
  %36 = add i64 %35, 1
  %37 = call noundef ptr @_Z12AllocateHeapm8MEMFLAGSN17AllocFailStrategy13AllocFailEnumE(i64 noundef %36, i8 noundef zeroext 23, i32 noundef 0)
  store ptr %37, ptr %9, align 8
  %38 = load ptr, ptr %9, align 8
  %39 = load i64, ptr %7, align 8
  %40 = add i64 %39, 1
  %41 = load ptr, ptr %3, align 8
  %42 = call i32 (ptr, i64, ptr, ...) @jio_snprintf(ptr noundef %38, i64 noundef %40, ptr noundef @.str.10, ptr noundef %41)
  %43 = load ptr, ptr %9, align 8
  ret ptr %43
}

; Function Attrs: mustprogress nounwind uwtable
define hidden void @_ZN10JvmtiAgent9set_jplisEPKv(ptr noundef nonnull align 8 dereferenceable(86) %0, ptr noundef %1) #1 align 2 {
  %3 = alloca ptr, align 8
  %4 = alloca ptr, align 8
  %5 = alloca ptr, align 8
  store ptr %0, ptr %3, align 8
  store ptr %1, ptr %4, align 8
  %6 = load ptr, ptr %3, align 8
  %7 = getelementptr inbounds %class.JvmtiAgent, ptr %6, i32 0, i32 4
  %8 = load ptr, ptr %7, align 8
  %9 = icmp ne ptr %8, null
  br i1 %9, label %10, label %20

10:                                               ; preds = %2
  %11 = getelementptr inbounds %class.JvmtiAgent, ptr %6, i32 0, i32 3
  %12 = load ptr, ptr %11, align 8
  call void @_ZN2os4freeEPv(ptr noundef %12)
  %13 = getelementptr inbounds %class.JvmtiAgent, ptr %6, i32 0, i32 4
  %14 = load ptr, ptr %13, align 8
  store ptr %14, ptr %5, align 8
  %15 = load ptr, ptr %5, align 8
  %16 = getelementptr inbounds %class.JvmtiAgent, ptr %6, i32 0, i32 4
  %17 = call noundef ptr @_ZL31split_options_and_allocate_copyPKcPS0_(ptr noundef %15, ptr noundef %16)
  %18 = getelementptr inbounds %class.JvmtiAgent, ptr %6, i32 0, i32 3
  store ptr %17, ptr %18, align 8
  %19 = load ptr, ptr %5, align 8
  call void @_ZN2os4freeEPv(ptr noundef %19)
  br label %20

20:                                               ; preds = %10, %2
  %21 = load ptr, ptr %4, align 8
  %22 = getelementptr inbounds %class.JvmtiAgent, ptr %6, i32 0, i32 7
  store ptr %21, ptr %22, align 8
  ret void
}