; Function Attrs: mustprogress nounwind uwtable
define hidden void @_ZN10JvmtiAgent9set_jplisEPKv(ptr nocapture noundef nonnull align 8 dereferenceable(86) %0, ptr noundef %1) local_unnamed_addr #0 align 2 {
  %3 = getelementptr inbounds i8, ptr %0, i64 48
  %4 = load ptr, ptr %3, align 8
  %.not = icmp eq ptr %4, null
  br i1 %.not, label %21, label %5

5:                                                ; preds = %2
  %6 = getelementptr inbounds i8, ptr %0, i64 40
  %7 = load ptr, ptr %6, align 8
  tail call void @_ZN2os4freeEPv(ptr noundef %7) #12
  %8 = load ptr, ptr %3, align 8
  %9 = tail call noundef ptr @strchr(ptr noundef nonnull dereferenceable(1) %8, i32 noundef 61) #13
  %.not.i = icmp eq ptr %9, null
  br i1 %.not.i, label %16, label %10

10:                                               ; preds = %5
  %11 = ptrtoint ptr %9 to i64
  %12 = ptrtoint ptr %8 to i64
  %13 = sub i64 %11, %12
  %14 = getelementptr inbounds i8, ptr %9, i64 1
  %15 = tail call noundef ptr @_ZN2os6strdupEPKc8MEMFLAGS(ptr noundef nonnull %14, i8 noundef zeroext 23) #12
  br label %_ZL31split_options_and_allocate_copyPKcPS0_.exit

16:                                               ; preds = %5
  %17 = tail call i64 @strlen(ptr noundef nonnull dereferenceable(1) %8) #13
  br label %_ZL31split_options_and_allocate_copyPKcPS0_.exit

_ZL31split_options_and_allocate_copyPKcPS0_.exit: ; preds = %10, %16
  %storemerge.i = phi ptr [ null, %16 ], [ %15, %10 ]
  %.0.i = phi i64 [ %17, %16 ], [ %13, %10 ]
  store ptr %storemerge.i, ptr %3, align 8
  %18 = add i64 %.0.i, 1
  %19 = tail call noundef ptr @_Z12AllocateHeapm8MEMFLAGSN17AllocFailStrategy13AllocFailEnumE(i64 noundef %18, i8 noundef zeroext 23, i32 noundef 0) #12
  %20 = tail call i32 (ptr, i64, ptr, ...) @jio_snprintf(ptr noundef %19, i64 noundef %18, ptr noundef nonnull @.str.10, ptr noundef %8) #12
  store ptr %19, ptr %6, align 8
  tail call void @_ZN2os4freeEPv(ptr noundef %8) #12
  br label %21

21:                                               ; preds = %_ZL31split_options_and_allocate_copyPKcPS0_.exit, %2
  %22 = getelementptr inbounds i8, ptr %0, i64 72
  store ptr %1, ptr %22, align 8
  ret void
}